target datalayout = "e-m:e-p270:32:32-p271:32:32-p272:64:64-i64:64-i128:128-f80:128-n8:16:32:64-S128"
target triple = "x86_64-pc-linux-gnu"

%struct.blake2_mac_data_st = type { %struct.blake2s_ctx_st, %struct.blake2s_param_st, [32 x i8] }
%struct.blake2s_ctx_st = type { [8 x i32], [2 x i32], [2 x i32], [64 x i8], i64, i64 }
%struct.blake2s_param_st = type { i8, i8, i8, i8, [4 x i8], [6 x i8], i8, i8, [8 x i8], [8 x i8] }
%struct.ossl_param_st = type { ptr, i32, ptr, i64, i64 }

@.str = private unnamed_addr constant [60 x i8] c"../openssl/providers/implementations/macs/blake2_mac_impl.c\00", align 1
@__func__.blake2_setkey = private unnamed_addr constant [14 x i8] c"blake2_setkey\00", align 1
@.str.1 = private unnamed_addr constant [5 x i8] c"size\00", align 1
@.str.4 = private unnamed_addr constant [4 x i8] c"key\00", align 1
@.str.5 = private unnamed_addr constant [7 x i8] c"custom\00", align 1
@.str.6 = private unnamed_addr constant [5 x i8] c"salt\00", align 1
@__func__.blake2_mac_set_ctx_params = private unnamed_addr constant [26 x i8] c"blake2_mac_set_ctx_params\00", align 1

; Function Attrs: nounwind uwtable
define internal i32 @blake2_setkey(ptr noundef %0, ptr noundef %1, i64 noundef %2) #0 {
  %4 = alloca i32, align 4
  %5 = alloca ptr, align 8
  %6 = alloca ptr, align 8
  %7 = alloca i64, align 8
  store ptr %0, ptr %5, align 8, !tbaa !7
  store ptr %1, ptr %6, align 8, !tbaa !13
  store i64 %2, ptr %7, align 8, !tbaa !11
  %8 = load i64, ptr %7, align 8, !tbaa !11
  %9 = icmp ugt i64 %8, 32
  br i1 %9, label %13, label %10

10:                                               ; preds = %3
  %11 = load i64, ptr %7, align 8, !tbaa !11
  %12 = icmp eq i64 %11, 0
  br i1 %12, label %13, label %14

13:                                               ; preds = %10, %3
  call void @ERR_new()
  call void @ERR_set_debug(ptr noundef @.str, i32 noundef 94, ptr noundef @__func__.blake2_setkey)
  call void (i32, i32, ptr, ...) @ERR_set_error(i32 noundef 57, i32 noundef 105, ptr noundef null)
  store i32 0, ptr %4, align 4
  br label %35

14:                                               ; preds = %10
  %15 = load ptr, ptr %5, align 8, !tbaa !7
  %16 = getelementptr inbounds nuw %struct.blake2_mac_data_st, ptr %15, i32 0, i32 2
  %17 = getelementptr inbounds [32 x i8], ptr %16, i64 0, i64 0
  %18 = load ptr, ptr %6, align 8, !tbaa !13
  %19 = load i64, ptr %7, align 8, !tbaa !11
  call void @llvm.memcpy.p0.p0.i64(ptr align 8 %17, ptr align 1 %18, i64 %19, i1 false)
  %20 = load i64, ptr %7, align 8, !tbaa !11
  %21 = icmp ult i64 %20, 32
  br i1 %21, label %22, label %30

22:                                               ; preds = %14
  %23 = load ptr, ptr %5, align 8, !tbaa !7
  %24 = getelementptr inbounds nuw %struct.blake2_mac_data_st, ptr %23, i32 0, i32 2
  %25 = getelementptr inbounds [32 x i8], ptr %24, i64 0, i64 0
  %26 = load i64, ptr %7, align 8, !tbaa !11
  %27 = getelementptr inbounds nuw i8, ptr %25, i64 %26
  %28 = load i64, ptr %7, align 8, !tbaa !11
  %29 = sub i64 32, %28
  call void @llvm.memset.p0.i64(ptr align 1 %27, i8 0, i64 %29, i1 false)
  br label %30

30:                                               ; preds = %22, %14
  %31 = load ptr, ptr %5, align 8, !tbaa !7
  %32 = getelementptr inbounds nuw %struct.blake2_mac_data_st, ptr %31, i32 0, i32 1
  %33 = load i64, ptr %7, align 8, !tbaa !11
  %34 = trunc i64 %33 to i8
  call void @ossl_blake2s_param_set_key_length(ptr noundef %32, i8 noundef zeroext %34)
  store i32 1, ptr %4, align 4
  br label %35

35:                                               ; preds = %30, %13
  %36 = load i32, ptr %4, align 4
  ret i32 %36
}

; Function Attrs: inlinehint nounwind uwtable
define internal i32 @ossl_param_is_empty(ptr noundef %0) #5 {
  %2 = alloca ptr, align 8
  store ptr %0, ptr %2, align 8, !tbaa !15
  %3 = load ptr, ptr %2, align 8, !tbaa !15
  %4 = icmp eq ptr %3, null
  br i1 %4, label %10, label %5

5:                                                ; preds = %1
  %6 = load ptr, ptr %2, align 8, !tbaa !15
  %7 = getelementptr inbounds nuw %struct.ossl_param_st, ptr %6, i32 0, i32 0
  %8 = load ptr, ptr %7, align 8, !tbaa !28
  %9 = icmp eq ptr %8, null
  br label %10

10:                                               ; preds = %5, %1
  %11 = phi i1 [ true, %1 ], [ %9, %5 ]
  %12 = zext i1 %11 to i32
  ret i32 %12
}

; Function Attrs: nounwind uwtable
define internal i32 @blake2_mac_set_ctx_params(ptr noundef %0, ptr noundef %1) #0 {
  %3 = alloca i32, align 4
  %4 = alloca ptr, align 8
  %5 = alloca ptr, align 8
  %6 = alloca ptr, align 8
  %7 = alloca ptr, align 8
  %8 = alloca i32, align 4
  %9 = alloca i64, align 8
  store ptr %0, ptr %4, align 8, !tbaa !3
  store ptr %1, ptr %5, align 8, !tbaa !15
  call void @llvm.lifetime.start.p0(i64 8, ptr %6) #6
  %10 = load ptr, ptr %4, align 8, !tbaa !3
  store ptr %10, ptr %6, align 8, !tbaa !7
  call void @llvm.lifetime.start.p0(i64 8, ptr %7) #6
  %11 = load ptr, ptr %5, align 8, !tbaa !15
  %12 = call i32 @ossl_param_is_empty(ptr noundef %11)
  %13 = icmp ne i32 %12, 0
  br i1 %13, label %14, label %15

14:                                               ; preds = %2
  store i32 1, ptr %3, align 4
  store i32 1, ptr %8, align 4
  br label %92

15:                                               ; preds = %2
  %16 = load ptr, ptr %5, align 8, !tbaa !15
  %17 = call ptr @OSSL_PARAM_locate_const(ptr noundef %16, ptr noundef @.str.1)
  store ptr %17, ptr %7, align 8, !tbaa !15
  %18 = icmp ne ptr %17, null
  br i1 %18, label %19, label %38

19:                                               ; preds = %15
  call void @llvm.lifetime.start.p0(i64 8, ptr %9) #6
  %20 = load ptr, ptr %7, align 8, !tbaa !15
  %21 = call i32 @OSSL_PARAM_get_size_t(ptr noundef %20, ptr noundef %9)
  %22 = icmp ne i32 %21, 0
  br i1 %22, label %23, label %29

23:                                               ; preds = %19
  %24 = load i64, ptr %9, align 8, !tbaa !11
  %25 = icmp ult i64 %24, 1
  br i1 %25, label %29, label %26

26:                                               ; preds = %23
  %27 = load i64, ptr %9, align 8, !tbaa !11
  %28 = icmp ugt i64 %27, 32
  br i1 %28, label %29, label %30

29:                                               ; preds = %26, %23, %19
  call void @ERR_new()
  call void @ERR_set_debug(ptr noundef @.str, i32 noundef 203, ptr noundef @__func__.blake2_mac_set_ctx_params)
  call void (i32, i32, ptr, ...) @ERR_set_error(i32 noundef 57, i32 noundef 113, ptr noundef null)
  store i32 0, ptr %3, align 4
  store i32 1, ptr %8, align 4
  br label %35

30:                                               ; preds = %26
  %31 = load ptr, ptr %6, align 8, !tbaa !7
  %32 = getelementptr inbounds nuw %struct.blake2_mac_data_st, ptr %31, i32 0, i32 1
  %33 = load i64, ptr %9, align 8, !tbaa !11
  %34 = trunc i64 %33 to i8
  call void @ossl_blake2s_param_set_digest_length(ptr noundef %32, i8 noundef zeroext %34)
  store i32 0, ptr %8, align 4
  br label %35

35:                                               ; preds = %30, %29
  call void @llvm.lifetime.end.p0(i64 8, ptr %9) #6
  %36 = load i32, ptr %8, align 4
  switch i32 %36, label %92 [
    i32 0, label %37
  ]

37:                                               ; preds = %35
  br label %38

38:                                               ; preds = %37, %15
  %39 = load ptr, ptr %5, align 8, !tbaa !15
  %40 = call ptr @OSSL_PARAM_locate_const(ptr noundef %39, ptr noundef @.str.4)
  store ptr %40, ptr %7, align 8, !tbaa !15
  %41 = icmp ne ptr %40, null
  br i1 %41, label %42, label %53

42:                                               ; preds = %38
  %43 = load ptr, ptr %6, align 8, !tbaa !7
  %44 = load ptr, ptr %7, align 8, !tbaa !15
  %45 = getelementptr inbounds nuw %struct.ossl_param_st, ptr %44, i32 0, i32 2
  %46 = load ptr, ptr %45, align 8, !tbaa !23
  %47 = load ptr, ptr %7, align 8, !tbaa !15
  %48 = getelementptr inbounds nuw %struct.ossl_param_st, ptr %47, i32 0, i32 3
  %49 = load i64, ptr %48, align 8, !tbaa !26
  %50 = call i32 @blake2_setkey(ptr noundef %43, ptr noundef %46, i64 noundef %49)
  %51 = icmp ne i32 %50, 0
  br i1 %51, label %53, label %52

52:                                               ; preds = %42
  store i32 0, ptr %3, align 4
  store i32 1, ptr %8, align 4
  br label %92

53:                                               ; preds = %42, %38
  %54 = load ptr, ptr %5, align 8, !tbaa !15
  %55 = call ptr @OSSL_PARAM_locate_const(ptr noundef %54, ptr noundef @.str.5)
  store ptr %55, ptr %7, align 8, !tbaa !15
  %56 = icmp ne ptr %55, null
  br i1 %56, label %57, label %72

57:                                               ; preds = %53
  %58 = load ptr, ptr %7, align 8, !tbaa !15
  %59 = getelementptr inbounds nuw %struct.ossl_param_st, ptr %58, i32 0, i32 3
  %60 = load i64, ptr %59, align 8, !tbaa !26
  %61 = icmp ugt i64 %60, 8
  br i1 %61, label %62, label %63

62:                                               ; preds = %57
  call void @ERR_new()
  call void @ERR_set_debug(ptr noundef @.str, i32 noundef 220, ptr noundef @__func__.blake2_mac_set_ctx_params)
  call void (i32, i32, ptr, ...) @ERR_set_error(i32 noundef 57, i32 noundef 111, ptr noundef null)
  store i32 0, ptr %3, align 4
  store i32 1, ptr %8, align 4
  br label %92

63:                                               ; preds = %57
  %64 = load ptr, ptr %6, align 8, !tbaa !7
  %65 = getelementptr inbounds nuw %struct.blake2_mac_data_st, ptr %64, i32 0, i32 1
  %66 = load ptr, ptr %7, align 8, !tbaa !15
  %67 = getelementptr inbounds nuw %struct.ossl_param_st, ptr %66, i32 0, i32 2
  %68 = load ptr, ptr %67, align 8, !tbaa !23
  %69 = load ptr, ptr %7, align 8, !tbaa !15
  %70 = getelementptr inbounds nuw %struct.ossl_param_st, ptr %69, i32 0, i32 3
  %71 = load i64, ptr %70, align 8, !tbaa !26
  call void @ossl_blake2s_param_set_personal(ptr noundef %65, ptr noundef %68, i64 noundef %71)
  br label %72

72:                                               ; preds = %63, %53
  %73 = load ptr, ptr %5, align 8, !tbaa !15
  %74 = call ptr @OSSL_PARAM_locate_const(ptr noundef %73, ptr noundef @.str.6)
  store ptr %74, ptr %7, align 8, !tbaa !15
  %75 = icmp ne ptr %74, null
  br i1 %75, label %76, label %91

76:                                               ; preds = %72
  %77 = load ptr, ptr %7, align 8, !tbaa !15
  %78 = getelementptr inbounds nuw %struct.ossl_param_st, ptr %77, i32 0, i32 3
  %79 = load i64, ptr %78, align 8, !tbaa !26
  %80 = icmp ugt i64 %79, 8
  br i1 %80, label %81, label %82

81:                                               ; preds = %76
  call void @ERR_new()
  call void @ERR_set_debug(ptr noundef @.str, i32 noundef 232, ptr noundef @__func__.blake2_mac_set_ctx_params)
  call void (i32, i32, ptr, ...) @ERR_set_error(i32 noundef 57, i32 noundef 112, ptr noundef null)
  store i32 0, ptr %3, align 4
  store i32 1, ptr %8, align 4
  br label %92

82:                                               ; preds = %76
  %83 = load ptr, ptr %6, align 8, !tbaa !7
  %84 = getelementptr inbounds nuw %struct.blake2_mac_data_st, ptr %83, i32 0, i32 1
  %85 = load ptr, ptr %7, align 8, !tbaa !15
  %86 = getelementptr inbounds nuw %struct.ossl_param_st, ptr %85, i32 0, i32 2
  %87 = load ptr, ptr %86, align 8, !tbaa !23
  %88 = load ptr, ptr %7, align 8, !tbaa !15
  %89 = getelementptr inbounds nuw %struct.ossl_param_st, ptr %88, i32 0, i32 3
  %90 = load i64, ptr %89, align 8, !tbaa !26
  call void @ossl_blake2s_param_set_salt(ptr noundef %84, ptr noundef %87, i64 noundef %90)
  br label %91

91:                                               ; preds = %82, %72
  store i32 1, ptr %3, align 4
  store i32 1, ptr %8, align 4
  br label %92

92:                                               ; preds = %91, %81, %62, %52, %35, %14
  call void @llvm.lifetime.end.p0(i64 8, ptr %7) #6
  call void @llvm.lifetime.end.p0(i64 8, ptr %6) #6
  %93 = load i32, ptr %3, align 4
  ret i32 %93
}