; Function Attrs: nounwind uwtable
define internal range(i32 0, 2) i32 @blake2_mac_set_ctx_params(ptr noundef %0, ptr noundef %1) #0 {
  %3 = alloca i64, align 8
  %4 = icmp eq ptr %1, null
  br i1 %4, label %ossl_param_is_empty.exit.thread, label %ossl_param_is_empty.exit

ossl_param_is_empty.exit:                         ; preds = %2
  %5 = load ptr, ptr %1, align 8, !tbaa !14
  %.not = icmp eq ptr %5, null
  br i1 %.not, label %ossl_param_is_empty.exit.thread, label %6

6:                                                ; preds = %ossl_param_is_empty.exit
  %7 = tail call ptr @OSSL_PARAM_locate_const(ptr noundef nonnull %1, ptr noundef nonnull @.str.1) #6
  %.not31 = icmp eq ptr %7, null
  br i1 %.not31, label %17, label %8

8:                                                ; preds = %6
  call void @llvm.lifetime.start.p0(i64 8, ptr nonnull %3) #6
  %9 = call i32 @OSSL_PARAM_get_size_t(ptr noundef nonnull %7, ptr noundef nonnull %3) #6
  %10 = icmp ne i32 %9, 0
  %11 = load i64, ptr %3, align 8
  %12 = add i64 %11, -1
  %13 = icmp ult i64 %12, 32
  %or.cond3.not = select i1 %10, i1 %13, i1 false
  br i1 %or.cond3.not, label %.thread, label %16

.thread:                                          ; preds = %8
  %14 = getelementptr inbounds nuw i8, ptr %0, i64 128
  %15 = trunc nuw nsw i64 %11 to i8
  call void @ossl_blake2s_param_set_digest_length(ptr noundef nonnull %14, i8 noundef zeroext %15) #6
  call void @llvm.lifetime.end.p0(i64 8, ptr nonnull %3) #6
  br label %17

16:                                               ; preds = %8
  call void @ERR_new() #6
  call void @ERR_set_debug(ptr noundef nonnull @.str, i32 noundef 203, ptr noundef nonnull @__func__.blake2_mac_set_ctx_params) #6
  call void (i32, i32, ptr, ...) @ERR_set_error(i32 noundef 57, i32 noundef 113, ptr noundef null) #6
  call void @llvm.lifetime.end.p0(i64 8, ptr nonnull %3) #6
  br label %ossl_param_is_empty.exit.thread

17:                                               ; preds = %.thread, %6
  %18 = call ptr @OSSL_PARAM_locate_const(ptr noundef nonnull %1, ptr noundef nonnull @.str.4) #6
  %.not34 = icmp eq ptr %18, null
  br i1 %.not34, label %33, label %19

19:                                               ; preds = %17
  %20 = getelementptr inbounds nuw i8, ptr %18, i64 24
  %21 = load i64, ptr %20, align 8, !tbaa !19
  %22 = add i64 %21, -33
  %or.cond.i = icmp ult i64 %22, -32
  br i1 %or.cond.i, label %blake2_setkey.exit.thread, label %23

blake2_setkey.exit.thread:                        ; preds = %19
  call void @ERR_new() #6
  call void @ERR_set_debug(ptr noundef nonnull @.str, i32 noundef 94, ptr noundef nonnull @__func__.blake2_setkey) #6
  call void (i32, i32, ptr, ...) @ERR_set_error(i32 noundef 57, i32 noundef 105, ptr noundef null) #6
  br label %ossl_param_is_empty.exit.thread

23:                                               ; preds = %19
  %24 = getelementptr inbounds nuw i8, ptr %18, i64 16
  %25 = load ptr, ptr %24, align 8, !tbaa !20
  %26 = getelementptr inbounds nuw i8, ptr %0, i64 160
  call void @llvm.memcpy.p0.p0.i64(ptr nonnull align 8 %26, ptr readonly align 1 %25, i64 %21, i1 false)
  %27 = icmp samesign ult i64 %21, 32
  br i1 %27, label %28, label %blake2_setkey.exit

28:                                               ; preds = %23
  %29 = getelementptr inbounds nuw i8, ptr %26, i64 %21
  %30 = sub nuw nsw i64 32, %21
  call void @llvm.memset.p0.i64(ptr nonnull align 1 %29, i8 0, i64 %30, i1 false)
  br label %blake2_setkey.exit

blake2_setkey.exit:                               ; preds = %23, %28
  %31 = getelementptr inbounds nuw i8, ptr %0, i64 128
  %32 = trunc nuw nsw i64 %21 to i8
  call void @ossl_blake2s_param_set_key_length(ptr noundef nonnull %31, i8 noundef zeroext %32) #6
  br label %33

33:                                               ; preds = %blake2_setkey.exit, %17
  %34 = call ptr @OSSL_PARAM_locate_const(ptr noundef nonnull %1, ptr noundef nonnull @.str.5) #6
  %.not36 = icmp eq ptr %34, null
  br i1 %.not36, label %44, label %35

35:                                               ; preds = %33
  %36 = getelementptr inbounds nuw i8, ptr %34, i64 24
  %37 = load i64, ptr %36, align 8, !tbaa !19
  %38 = icmp ugt i64 %37, 8
  br i1 %38, label %39, label %40

39:                                               ; preds = %35
  call void @ERR_new() #6
  call void @ERR_set_debug(ptr noundef nonnull @.str, i32 noundef 220, ptr noundef nonnull @__func__.blake2_mac_set_ctx_params) #6
  call void (i32, i32, ptr, ...) @ERR_set_error(i32 noundef 57, i32 noundef 111, ptr noundef null) #6
  br label %ossl_param_is_empty.exit.thread

40:                                               ; preds = %35
  %41 = getelementptr inbounds nuw i8, ptr %0, i64 128
  %42 = getelementptr inbounds nuw i8, ptr %34, i64 16
  %43 = load ptr, ptr %42, align 8, !tbaa !20
  call void @ossl_blake2s_param_set_personal(ptr noundef nonnull %41, ptr noundef %43, i64 noundef %37) #6
  br label %44

44:                                               ; preds = %40, %33
  %45 = call ptr @OSSL_PARAM_locate_const(ptr noundef nonnull %1, ptr noundef nonnull @.str.6) #6
  %.not37 = icmp eq ptr %45, null
  br i1 %.not37, label %ossl_param_is_empty.exit.thread, label %46

46:                                               ; preds = %44
  %47 = getelementptr inbounds nuw i8, ptr %45, i64 24
  %48 = load i64, ptr %47, align 8, !tbaa !19
  %49 = icmp ugt i64 %48, 8
  br i1 %49, label %50, label %51

50:                                               ; preds = %46
  call void @ERR_new() #6
  call void @ERR_set_debug(ptr noundef nonnull @.str, i32 noundef 232, ptr noundef nonnull @__func__.blake2_mac_set_ctx_params) #6
  call void (i32, i32, ptr, ...) @ERR_set_error(i32 noundef 57, i32 noundef 112, ptr noundef null) #6
  br label %ossl_param_is_empty.exit.thread

51:                                               ; preds = %46
  %52 = getelementptr inbounds nuw i8, ptr %0, i64 128
  %53 = getelementptr inbounds nuw i8, ptr %45, i64 16
  %54 = load ptr, ptr %53, align 8, !tbaa !20
  call void @ossl_blake2s_param_set_salt(ptr noundef nonnull %52, ptr noundef %54, i64 noundef %48) #6
  br label %ossl_param_is_empty.exit.thread

ossl_param_is_empty.exit.thread:                  ; preds = %2, %blake2_setkey.exit.thread, %16, %44, %51, %ossl_param_is_empty.exit, %50, %39
  %.023 = phi i32 [ 0, %39 ], [ 0, %50 ], [ 0, %16 ], [ 1, %ossl_param_is_empty.exit ], [ 1, %51 ], [ 1, %44 ], [ 0, %blake2_setkey.exit.thread ], [ 1, %2 ]
  ret i32 %.023
}